; Function Attrs: nounwind uwtable
define dso_local i64 @json_build_object(ptr noundef %0) local_unnamed_addr #0 {
  %2 = alloca ptr, align 8
  %3 = alloca ptr, align 8
  %4 = alloca ptr, align 8
  call void @llvm.lifetime.start.p0(i64 8, ptr nonnull %2) #10
  call void @llvm.lifetime.start.p0(i64 8, ptr nonnull %3) #10
  call void @llvm.lifetime.start.p0(i64 8, ptr nonnull %4) #10
  %5 = call i32 @extract_variadic_args(ptr noundef %0, i32 noundef 0, i1 noundef zeroext true, ptr noundef nonnull %2, ptr noundef nonnull %4, ptr noundef nonnull %3) #10
  %6 = icmp slt i32 %5, 0
  br i1 %6, label %7, label %9

7:                                                ; preds = %1
  %8 = getelementptr inbounds nuw i8, ptr %0, i64 28
  store i8 1, ptr %8, align 4
  br label %14

9:                                                ; preds = %1
  %10 = load ptr, ptr %2, align 8
  %11 = load ptr, ptr %3, align 8
  %12 = load ptr, ptr %4, align 8
  %13 = call i64 @json_build_object_worker(i32 noundef %5, ptr noundef %10, ptr noundef %11, ptr noundef %12, i1 noundef zeroext false, i1 noundef zeroext false)
  br label %14

14:                                               ; preds = %9, %7
  %.0 = phi i64 [ 0, %7 ], [ %13, %9 ]
  call void @llvm.lifetime.end.p0(i64 8, ptr nonnull %4) #10
  call void @llvm.lifetime.end.p0(i64 8, ptr nonnull %3) #10
  call void @llvm.lifetime.end.p0(i64 8, ptr nonnull %2) #10
  ret i64 %.0
}